target datalayout = "e-m:e-p270:32:32-p271:32:32-p272:64:64-i64:64-i128:128-f80:128-n8:16:32:64-S128"
target triple = "x86_64-pc-linux-gnu"

%struct.archive_read_filter = type { i64, ptr, ptr, ptr, ptr, ptr, ptr, i32, i32, i32, ptr, i64, ptr, i64, ptr, i64, ptr, i64, i8, i8, i8 }
%struct.private_data = type { %struct.z_stream_s, i8, ptr, i64, i64, i64, i32, ptr, i8 }
%struct.z_stream_s = type { ptr, i32, i64, ptr, i32, i64, ptr, ptr, ptr, ptr, ptr, i32, i64, i64 }

; Function Attrs: nounwind uwtable
define internal i32 @gzip_read_header(ptr noundef %0, ptr noundef %1) #0 {
  %3 = alloca ptr, align 8
  %4 = alloca ptr, align 8
  %5 = alloca ptr, align 8
  store ptr %0, ptr %3, align 8, !tbaa !13
  store ptr %1, ptr %4, align 8, !tbaa !53
  call void @llvm.lifetime.start.p0(i64 8, ptr %5) #8
  %6 = load ptr, ptr %3, align 8, !tbaa !13
  %7 = getelementptr inbounds nuw %struct.archive_read_filter, ptr %6, i32 0, i32 5
  %8 = load ptr, ptr %7, align 8, !tbaa !27
  store ptr %8, ptr %5, align 8, !tbaa !23
  %9 = load ptr, ptr %5, align 8, !tbaa !23
  %10 = getelementptr inbounds nuw %struct.private_data, ptr %9, i32 0, i32 6
  %11 = load i32, ptr %10, align 8, !tbaa !40
  %12 = icmp ne i32 %11, 0
  br i1 %12, label %13, label %19

13:                                               ; preds = %2
  %14 = load ptr, ptr %4, align 8, !tbaa !53
  %15 = load ptr, ptr %5, align 8, !tbaa !23
  %16 = getelementptr inbounds nuw %struct.private_data, ptr %15, i32 0, i32 6
  %17 = load i32, ptr %16, align 8, !tbaa !40
  %18 = zext i32 %17 to i64
  call void @archive_entry_set_mtime(ptr noundef %14, i64 noundef %18, i64 noundef 0)
  br label %19

19:                                               ; preds = %13, %2
  %20 = load ptr, ptr %5, align 8, !tbaa !23
  %21 = getelementptr inbounds nuw %struct.private_data, ptr %20, i32 0, i32 7
  %22 = load ptr, ptr %21, align 8, !tbaa !43
  %23 = icmp ne ptr %22, null
  br i1 %23, label %24, label %29

24:                                               ; preds = %19
  %25 = load ptr, ptr %4, align 8, !tbaa !53
  %26 = load ptr, ptr %5, align 8, !tbaa !23
  %27 = getelementptr inbounds nuw %struct.private_data, ptr %26, i32 0, i32 7
  %28 = load ptr, ptr %27, align 8, !tbaa !43
  call void @archive_entry_set_pathname(ptr noundef %25, ptr noundef %28)
  br label %29

29:                                               ; preds = %24, %19
  call void @llvm.lifetime.end.p0(i64 8, ptr %5) #8
  ret i32 0
}