; Function Attrs: nounwind uwtable
define internal noundef i32 @gzip_read_header(ptr noundef readonly captures(none) %0, ptr noundef %1) #0 {
  %3 = getelementptr inbounds nuw i8, ptr %0, i64 40
  %4 = load ptr, ptr %3, align 8, !tbaa !18
  %5 = getelementptr inbounds nuw i8, ptr %4, i64 152
  %6 = load i32, ptr %5, align 8, !tbaa !26
  %.not = icmp eq i32 %6, 0
  br i1 %.not, label %9, label %7

7:                                                ; preds = %2
  %8 = zext i32 %6 to i64
  tail call void @archive_entry_set_mtime(ptr noundef %1, i64 noundef %8, i64 noundef 0) #8
  br label %9

9:                                                ; preds = %7, %2
  %10 = getelementptr inbounds nuw i8, ptr %4, i64 160
  %11 = load ptr, ptr %10, align 8, !tbaa !30
  %.not8 = icmp eq ptr %11, null
  br i1 %.not8, label %13, label %12

12:                                               ; preds = %9
  tail call void @archive_entry_set_pathname(ptr noundef %1, ptr noundef nonnull %11) #8
  br label %13

13:                                               ; preds = %12, %9
  ret i32 0
}